; Function Attrs: mustprogress uwtable
define internal fastcc noundef range(i32 0, 2) i32 @_ZL24stbi__decode_jpeg_headerP10stbi__jpegi(ptr noundef nonnull captures(none) initializes((18472, 18473), (18504, 18512)) %0, i32 noundef range(i32 0, 3) %1) unnamed_addr #5 {
  %3 = getelementptr inbounds nuw i8, ptr %0, i64 18504
  store i32 0, ptr %3, align 8, !tbaa !92
  %4 = getelementptr inbounds nuw i8, ptr %0, i64 18508
  store i32 -1, ptr %4, align 4, !tbaa !93
  %5 = getelementptr inbounds nuw i8, ptr %0, i64 18472
  store i8 -1, ptr %5, align 8, !tbaa !94
  %6 = tail call fastcc noundef zeroext i8 @_ZL16stbi__get_markerP10stbi__jpeg(ptr noundef %0)
  %7 = icmp eq i8 %6, -40
  br i1 %7, label %10, label %8

8:                                                ; preds = %2
  %9 = tail call align 8 ptr @llvm.threadlocal.address.p0(ptr align 8 @_ZL22stbi__g_failure_reason)
  store ptr @.str.43, ptr %9, align 8, !tbaa !4
  br label %.loopexit30

10:                                               ; preds = %2
  %11 = icmp eq i32 %1, 1
  br i1 %11, label %.loopexit30, label %12

12:                                               ; preds = %10
  %13 = tail call fastcc noundef zeroext i8 @_ZL16stbi__get_markerP10stbi__jpeg(ptr noundef %0)
  %.034 = zext i8 %13 to i32
  %14 = and i32 %.034, 254
  %or.cond35 = icmp ne i32 %14, 192
  %15 = icmp ne i8 %13, -62
  %spec.select36 = and i1 %15, %or.cond35
  br i1 %spec.select36, label %.lr.ph38, label %._crit_edge

.loopexit:                                        ; preds = %_ZL12stbi__at_eofP13stbi__context.exit.thread, %19
  %.1.in.lcssa = phi i8 [ %20, %19 ], [ %40, %_ZL12stbi__at_eofP13stbi__context.exit.thread ]
  %.0 = zext i8 %.1.in.lcssa to i32
  %16 = and i32 %.0, 254
  %or.cond = icmp ne i32 %16, 192
  %17 = icmp ne i8 %.1.in.lcssa, -62
  %spec.select = and i1 %17, %or.cond
  br i1 %spec.select, label %.lr.ph38, label %._crit_edge, !llvm.loop !318

.lr.ph38:                                         ; preds = %12, %.loopexit
  %.037 = phi i32 [ %.0, %.loopexit ], [ %.034, %12 ]
  %18 = tail call fastcc noundef i32 @_ZL20stbi__process_markerP10stbi__jpegi(ptr noundef %0, i32 noundef %.037)
  %.not23 = icmp eq i32 %18, 0
  br i1 %.not23, label %.loopexit30, label %19

19:                                               ; preds = %.lr.ph38
  %20 = tail call fastcc noundef zeroext i8 @_ZL16stbi__get_markerP10stbi__jpeg(ptr noundef %0)
  %21 = icmp eq i8 %20, -1
  br i1 %21, label %.lr.ph, label %.loopexit

.lr.ph:                                           ; preds = %19, %_ZL12stbi__at_eofP13stbi__context.exit.thread
  %22 = load ptr, ptr %0, align 8, !tbaa !50
  %23 = getelementptr inbounds nuw i8, ptr %22, i64 16
  %24 = load ptr, ptr %23, align 8, !tbaa !21
  %.not.i = icmp eq ptr %24, null
  br i1 %.not.i, label %_ZL12stbi__at_eofP13stbi__context.exit, label %25

25:                                               ; preds = %.lr.ph
  %26 = getelementptr inbounds nuw i8, ptr %22, i64 32
  %27 = load ptr, ptr %26, align 8, !tbaa !146
  %28 = getelementptr inbounds nuw i8, ptr %22, i64 40
  %29 = load ptr, ptr %28, align 8, !tbaa !13
  %30 = tail call noundef i32 %27(ptr noundef %29)
  %.not6.i = icmp eq i32 %30, 0
  br i1 %.not6.i, label %_ZL12stbi__at_eofP13stbi__context.exit.thread, label %31

31:                                               ; preds = %25
  %32 = getelementptr inbounds nuw i8, ptr %22, i64 48
  %33 = load i32, ptr %32, align 8, !tbaa !17
  %34 = icmp eq i32 %33, 0
  br i1 %34, label %_ZL12stbi__at_eofP13stbi__context.exit.thread27, label %_ZL12stbi__at_eofP13stbi__context.exit

_ZL12stbi__at_eofP13stbi__context.exit:           ; preds = %.lr.ph, %31
  %35 = getelementptr inbounds nuw i8, ptr %22, i64 192
  %36 = load ptr, ptr %35, align 8, !tbaa !20
  %37 = getelementptr inbounds nuw i8, ptr %22, i64 200
  %38 = load ptr, ptr %37, align 8, !tbaa !23
  %.not = icmp ult ptr %36, %38
  br i1 %.not, label %_ZL12stbi__at_eofP13stbi__context.exit.thread, label %_ZL12stbi__at_eofP13stbi__context.exit.thread27

_ZL12stbi__at_eofP13stbi__context.exit.thread27:  ; preds = %31, %_ZL12stbi__at_eofP13stbi__context.exit
  %39 = tail call align 8 ptr @llvm.threadlocal.address.p0(ptr align 8 @_ZL22stbi__g_failure_reason)
  store ptr @.str.44, ptr %39, align 8, !tbaa !4
  br label %.loopexit30

_ZL12stbi__at_eofP13stbi__context.exit.thread:    ; preds = %25, %_ZL12stbi__at_eofP13stbi__context.exit
  %40 = tail call fastcc noundef zeroext i8 @_ZL16stbi__get_markerP10stbi__jpeg(ptr noundef %0)
  %41 = icmp eq i8 %40, -1
  br i1 %41, label %.lr.ph, label %.loopexit, !llvm.loop !319

._crit_edge:                                      ; preds = %.loopexit, %12
  %.0.in.lcssa = phi i8 [ %13, %12 ], [ %.1.in.lcssa, %.loopexit ]
  %42 = icmp eq i8 %.0.in.lcssa, -62
  %43 = zext i1 %42 to i32
  %44 = getelementptr inbounds nuw i8, ptr %0, i64 18480
  store i32 %43, ptr %44, align 8, !tbaa !109
  %45 = tail call fastcc noundef i32 @_ZL26stbi__process_frame_headerP10stbi__jpegi(ptr noundef %0, i32 noundef %1)
  br label %.loopexit30

.loopexit30:                                      ; preds = %.lr.ph38, %._crit_edge, %10, %_ZL12stbi__at_eofP13stbi__context.exit.thread27, %8
  %.021 = phi i32 [ 0, %_ZL12stbi__at_eofP13stbi__context.exit.thread27 ], [ 0, %8 ], [ 1, %10 ], [ %45, %._crit_edge ], [ 0, %.lr.ph38 ]
  ret i32 %.021
}